; Function Attrs: mustprogress uwtable
define noundef double @_ZNK8QuantLib17LmVolatilityModel10volatilityEmdRKNS_5ArrayE(ptr noundef nonnull align 8 dereferenceable(40) %this, i64 noundef %i, double noundef %t, ptr noundef nonnull align 8 dereferenceable(16) %x) unnamed_addr #4 align 2 personality ptr @__gxx_personality_v0 {
_ZN8QuantLib5ArrayD2Ev.exit:
  %ref.tmp = alloca %"class.QuantLib::Array", align 8
  call void @llvm.lifetime.start.p0(i64 16, ptr nonnull %ref.tmp) #21
  %vtable = load ptr, ptr %this, align 8, !tbaa !3
  %vfn = getelementptr inbounds i8, ptr %vtable, i64 16
  %0 = load ptr, ptr %vfn, align 8
  call void %0(ptr dead_on_unwind nonnull writable sret(%"class.QuantLib::Array") align 8 %ref.tmp, ptr noundef nonnull align 8 dereferenceable(40) %this, double noundef %t, ptr noundef nonnull align 8 dereferenceable(16) %x)
  %1 = load ptr, ptr %ref.tmp, align 8, !tbaa !18
  %arrayidx.i = getelementptr inbounds nuw double, ptr %1, i64 %i
  %2 = load double, ptr %arrayidx.i, align 8, !tbaa !19
  call void @_ZdaPv(ptr noundef nonnull %1) #25
  call void @llvm.lifetime.end.p0(i64 16, ptr nonnull %ref.tmp) #21
  ret double %2
}